; Function Attrs: nounwind uwtable
define i64 @Java_sun_font_NativeFont_getGlyphImageNoDefault(ptr nocapture noundef readnone %0, ptr nocapture noundef readnone %1, i64 noundef %2, i32 noundef %3) local_unnamed_addr #0 {
  %5 = alloca %struct.AWTChar2b, align 1
  %6 = inttoptr i64 %2 to ptr
  %7 = icmp eq i64 %2, 0
  br i1 %7, label %29, label %8

8:                                                ; preds = %4
  %9 = load ptr, ptr %6, align 8
  %10 = icmp eq ptr %9, null
  br i1 %10, label %29, label %11

11:                                               ; preds = %8
  %12 = getelementptr inbounds i8, ptr %6, i64 24
  %13 = load i32, ptr %12, align 8
  %14 = icmp eq i32 %13, -1
  br i1 %14, label %29, label %15

15:                                               ; preds = %11
  %16 = getelementptr inbounds i8, ptr %6, i64 8
  %17 = load i32, ptr %16, align 8
  %18 = icmp sgt i32 %17, %3
  br i1 %18, label %29, label %19

19:                                               ; preds = %15
  %20 = getelementptr inbounds i8, ptr %6, i64 12
  %21 = load i32, ptr %20, align 4
  %22 = icmp slt i32 %21, %3
  br i1 %22, label %29, label %23

23:                                               ; preds = %19
  %24 = lshr i32 %3, 8
  %25 = trunc i32 %24 to i8
  store i8 %25, ptr %5, align 1
  %26 = trunc i32 %3 to i8
  %27 = getelementptr inbounds i8, ptr %5, i64 1
  store i8 %26, ptr %27, align 1
  %28 = call i64 @AWTFontGenerateImage(ptr noundef nonnull %9, ptr noundef nonnull %5) #7
  br label %29

29:                                               ; preds = %15, %19, %8, %11, %4, %23
  %.0 = phi i64 [ %28, %23 ], [ 0, %4 ], [ 0, %11 ], [ 0, %8 ], [ 0, %19 ], [ 0, %15 ]
  ret i64 %.0
}